; Function Attrs: mustprogress uwtable
define void @_ZN7Imf_3_425getCompressionNamesStringERKNSt7__cxx1112basic_stringIcSt11char_traitsIcESaIcEEERS5_(ptr noundef nonnull align 8 dereferenceable(32) %0, ptr noundef nonnull align 8 dereferenceable(32) %1) local_unnamed_addr #5 personality ptr @__gxx_personality_v0 {
  %3 = alloca %"class.std::__cxx11::basic_string", align 8
  %4 = getelementptr inbounds nuw i8, ptr %3, i64 8
  %5 = getelementptr inbounds nuw i8, ptr %1, i64 8
  %6 = getelementptr inbounds nuw i8, ptr %3, i64 16
  br label %7

7:                                                ; preds = %2, %_ZNSt7__cxx1112basic_stringIcSt11char_traitsIcESaIcEED2Ev.exit
  %indvars.iv = phi i64 [ 0, %2 ], [ %indvars.iv.next, %_ZNSt7__cxx1112basic_stringIcSt11char_traitsIcESaIcEED2Ev.exit ]
  call void @llvm.lifetime.start.p0(i64 32, ptr nonnull %3) #24
  %8 = getelementptr inbounds nuw [10 x %"struct.Imf_3_4::CompressionDesc"], ptr @_ZN7Imf_3_4L8IdToDescE, i64 0, i64 %indvars.iv
  call void @_ZStplIcSt11char_traitsIcESaIcEENSt7__cxx1112basic_stringIT_T0_T1_EERKS8_SA_(ptr dead_on_unwind nonnull writable sret(%"class.std::__cxx11::basic_string") align 8 %3, ptr noundef nonnull align 8 dereferenceable(32) %8, ptr noundef nonnull align 8 dereferenceable(32) %0)
  %9 = load i64, ptr %4, align 8, !tbaa !11
  %10 = load i64, ptr %5, align 8, !tbaa !11
  %11 = sub i64 4611686018427387903, %10
  %12 = icmp ult i64 %11, %9
  br i1 %12, label %13, label %_ZNSt7__cxx1112basic_stringIcSt11char_traitsIcESaIcEE6appendERKS4_.exit.i

13:                                               ; preds = %7
  invoke void @_ZSt20__throw_length_errorPKc(ptr noundef nonnull @.str.25) #25
          to label %.noexc unwind label %.loopexit.split-lp

.noexc:                                           ; preds = %13
  unreachable

_ZNSt7__cxx1112basic_stringIcSt11char_traitsIcESaIcEE6appendERKS4_.exit.i: ; preds = %7
  %14 = load ptr, ptr %3, align 8, !tbaa !3
  %15 = invoke noundef nonnull align 8 dereferenceable(32) ptr @_ZNSt7__cxx1112basic_stringIcSt11char_traitsIcESaIcEE9_M_appendEPKcm(ptr noundef nonnull align 8 dereferenceable(32) %1, ptr noundef %14, i64 noundef %9)
          to label %_ZNSt7__cxx1112basic_stringIcSt11char_traitsIcESaIcEEpLERKS4_.exit unwind label %.loopexit

_ZNSt7__cxx1112basic_stringIcSt11char_traitsIcESaIcEEpLERKS4_.exit: ; preds = %_ZNSt7__cxx1112basic_stringIcSt11char_traitsIcESaIcEE6appendERKS4_.exit.i
  %16 = load ptr, ptr %3, align 8, !tbaa !3
  %17 = icmp eq ptr %16, %6
  br i1 %17, label %_ZNKSt7__cxx1112basic_stringIcSt11char_traitsIcESaIcEE11_M_is_localEv.exit.thread.i.i, label %_ZNKSt7__cxx1112basic_stringIcSt11char_traitsIcESaIcEE11_M_is_localEv.exit.i.i

_ZNKSt7__cxx1112basic_stringIcSt11char_traitsIcESaIcEE11_M_is_localEv.exit.thread.i.i: ; preds = %_ZNSt7__cxx1112basic_stringIcSt11char_traitsIcESaIcEEpLERKS4_.exit
  %18 = load i64, ptr %4, align 8, !tbaa !11
  %19 = icmp ult i64 %18, 16
  call void @llvm.assume(i1 %19)
  br label %_ZNSt7__cxx1112basic_stringIcSt11char_traitsIcESaIcEED2Ev.exit

_ZNKSt7__cxx1112basic_stringIcSt11char_traitsIcESaIcEE11_M_is_localEv.exit.i.i: ; preds = %_ZNSt7__cxx1112basic_stringIcSt11char_traitsIcESaIcEEpLERKS4_.exit
  %20 = load i64, ptr %6, align 8, !tbaa !12
  %21 = add i64 %20, 1
  call void @_ZdlPvm(ptr noundef %16, i64 noundef %21) #22
  br label %_ZNSt7__cxx1112basic_stringIcSt11char_traitsIcESaIcEED2Ev.exit

_ZNSt7__cxx1112basic_stringIcSt11char_traitsIcESaIcEED2Ev.exit: ; preds = %_ZNKSt7__cxx1112basic_stringIcSt11char_traitsIcESaIcEE11_M_is_localEv.exit.thread.i.i, %_ZNKSt7__cxx1112basic_stringIcSt11char_traitsIcESaIcEE11_M_is_localEv.exit.i.i
  call void @llvm.lifetime.end.p0(i64 32, ptr nonnull %3) #24
  %indvars.iv.next = add nuw nsw i64 %indvars.iv, 1
  %exitcond.not = icmp eq i64 %indvars.iv.next, 9
  br i1 %exitcond.not, label %29, label %7, !llvm.loop !34

.loopexit:                                        ; preds = %_ZNSt7__cxx1112basic_stringIcSt11char_traitsIcESaIcEE6appendERKS4_.exit.i
  %lpad.loopexit = landingpad { ptr, i32 }
          cleanup
  br label %22

.loopexit.split-lp:                               ; preds = %13
  %lpad.loopexit.split-lp = landingpad { ptr, i32 }
          cleanup
  br label %22

22:                                               ; preds = %.loopexit.split-lp, %.loopexit
  %lpad.phi = phi { ptr, i32 } [ %lpad.loopexit, %.loopexit ], [ %lpad.loopexit.split-lp, %.loopexit.split-lp ]
  %23 = load ptr, ptr %3, align 8, !tbaa !3
  %24 = icmp eq ptr %23, %6
  br i1 %24, label %_ZNKSt7__cxx1112basic_stringIcSt11char_traitsIcESaIcEE11_M_is_localEv.exit.thread.i.i10, label %_ZNKSt7__cxx1112basic_stringIcSt11char_traitsIcESaIcEE11_M_is_localEv.exit.i.i9

_ZNKSt7__cxx1112basic_stringIcSt11char_traitsIcESaIcEE11_M_is_localEv.exit.thread.i.i10: ; preds = %22
  %25 = load i64, ptr %4, align 8, !tbaa !11
  %26 = icmp ult i64 %25, 16
  call void @llvm.assume(i1 %26)
  br label %_ZNSt7__cxx1112basic_stringIcSt11char_traitsIcESaIcEED2Ev.exit11

_ZNKSt7__cxx1112basic_stringIcSt11char_traitsIcESaIcEE11_M_is_localEv.exit.i.i9: ; preds = %22
  %27 = load i64, ptr %6, align 8, !tbaa !12
  %28 = add i64 %27, 1
  call void @_ZdlPvm(ptr noundef %23, i64 noundef %28) #22
  br label %_ZNSt7__cxx1112basic_stringIcSt11char_traitsIcESaIcEED2Ev.exit11

_ZNSt7__cxx1112basic_stringIcSt11char_traitsIcESaIcEED2Ev.exit11: ; preds = %_ZNKSt7__cxx1112basic_stringIcSt11char_traitsIcESaIcEE11_M_is_localEv.exit.thread.i.i10, %_ZNKSt7__cxx1112basic_stringIcSt11char_traitsIcESaIcEE11_M_is_localEv.exit.i.i9
  call void @llvm.lifetime.end.p0(i64 32, ptr nonnull %3) #24
  resume { ptr, i32 } %lpad.phi

29:                                               ; preds = %_ZNSt7__cxx1112basic_stringIcSt11char_traitsIcESaIcEED2Ev.exit
  %30 = load i64, ptr getelementptr inbounds nuw (i8, ptr @_ZN7Imf_3_4L8IdToDescE, i64 656), align 16, !tbaa !11
  %31 = load i64, ptr %5, align 8, !tbaa !11
  %32 = sub i64 4611686018427387903, %31
  %33 = icmp ult i64 %32, %30
  br i1 %33, label %34, label %_ZNSt7__cxx1112basic_stringIcSt11char_traitsIcESaIcEEpLERKS4_.exit13

34:                                               ; preds = %29
  call void @_ZSt20__throw_length_errorPKc(ptr noundef nonnull @.str.25) #25
  unreachable

_ZNSt7__cxx1112basic_stringIcSt11char_traitsIcESaIcEEpLERKS4_.exit13: ; preds = %29
  %35 = load ptr, ptr getelementptr inbounds nuw (i8, ptr @_ZN7Imf_3_4L8IdToDescE, i64 648), align 8, !tbaa !3
  %36 = call noundef nonnull align 8 dereferenceable(32) ptr @_ZNSt7__cxx1112basic_stringIcSt11char_traitsIcESaIcEE9_M_appendEPKcm(ptr noundef nonnull align 8 dereferenceable(32) %1, ptr noundef %35, i64 noundef %30)
  ret void
}